target datalayout = "e-m:e-p270:32:32-p271:32:32-p272:64:64-i64:64-i128:128-f80:128-n8:16:32:64-S128"
target triple = "x86_64-pc-linux-gnu"

%struct.luaEngineCtx = type { ptr }
%struct.lua_State = type { ptr, i8, i8, i8, ptr, ptr, ptr, ptr, ptr, ptr, ptr, ptr, ptr, i32, i32, i16, i16, i8, i8, i32, i32, ptr, %struct.lua_TValue, %struct.lua_TValue, ptr, ptr, ptr, i64 }
%struct.lua_TValue = type { %union.Value, i32 }
%union.Value = type { ptr }
%struct.global_State = type { %struct.stringtable, ptr, ptr, i8, i8, i32, ptr, ptr, ptr, ptr, ptr, ptr, %struct.Mbuffer, i64, i64, i64, i64, i32, i32, ptr, %struct.lua_TValue, ptr, %struct.UpVal, [9 x ptr], [17 x ptr] }
%struct.stringtable = type { ptr, i32, i32 }
%struct.Mbuffer = type { ptr, i64, i64 }
%struct.UpVal = type { ptr, i8, i8, ptr, %union.anon }
%union.anon = type { %struct.lua_TValue }

@.str.36 = private unnamed_addr constant [15 x i8] c"tcache.destroy\00", align 1

; Function Attrs: nounwind uwtable
define internal void @luaEngineFreeCtx(ptr noundef %0) #0 {
  %2 = alloca ptr, align 8
  %3 = alloca ptr, align 8
  %4 = alloca ptr, align 8
  %5 = alloca i32, align 4
  store ptr %0, ptr %2, align 8, !tbaa !27
  call void @llvm.lifetime.start.p0(i64 8, ptr %3) #11
  %6 = load ptr, ptr %2, align 8, !tbaa !27
  store ptr %6, ptr %3, align 8, !tbaa !5
  call void @llvm.lifetime.start.p0(i64 8, ptr %4) #11
  %7 = load ptr, ptr %3, align 8, !tbaa !5
  %8 = getelementptr inbounds nuw %struct.luaEngineCtx, ptr %7, i32 0, i32 0
  %9 = load ptr, ptr %8, align 8, !tbaa !10
  %10 = getelementptr inbounds nuw %struct.lua_State, ptr %9, i32 0, i32 6
  %11 = load ptr, ptr %10, align 8, !tbaa !58
  %12 = getelementptr inbounds nuw %struct.global_State, ptr %11, i32 0, i32 2
  %13 = load ptr, ptr %12, align 8, !tbaa !68
  store ptr %13, ptr %4, align 8, !tbaa !27
  call void @llvm.lifetime.start.p0(i64 4, ptr %5) #11
  %14 = load ptr, ptr %4, align 8, !tbaa !27
  %15 = ptrtoint ptr %14 to i64
  %16 = trunc i64 %15 to i32
  store i32 %16, ptr %5, align 4, !tbaa !45
  %17 = load ptr, ptr %3, align 8, !tbaa !5
  %18 = getelementptr inbounds nuw %struct.luaEngineCtx, ptr %17, i32 0, i32 0
  %19 = load ptr, ptr %18, align 8, !tbaa !10
  %20 = call i32 @lua_gc(ptr noundef %19, i32 noundef 2, i32 noundef 0)
  %21 = load ptr, ptr %3, align 8, !tbaa !5
  %22 = getelementptr inbounds nuw %struct.luaEngineCtx, ptr %21, i32 0, i32 0
  %23 = load ptr, ptr %22, align 8, !tbaa !10
  call void @lua_close(ptr noundef %23)
  %24 = load ptr, ptr %3, align 8, !tbaa !5
  call void @zfree(ptr noundef %24)
  %25 = call i32 @je_mallctl(ptr noundef @.str.36, ptr noundef null, ptr noundef null, ptr noundef %5, i64 noundef 4) #11
  call void @llvm.lifetime.end.p0(i64 4, ptr %5) #11
  call void @llvm.lifetime.end.p0(i64 8, ptr %4) #11
  call void @llvm.lifetime.end.p0(i64 8, ptr %3) #11
  ret void
}