; Function Attrs: nounwind uwtable
define internal void @luaEngineFreeCtx(ptr noundef %0) #0 {
  %2 = alloca i32, align 4
  %3 = load ptr, ptr %0, align 8, !tbaa !5
  %4 = getelementptr inbounds nuw i8, ptr %3, i64 32
  %5 = load ptr, ptr %4, align 8, !tbaa !36
  %6 = getelementptr inbounds nuw i8, ptr %5, i64 24
  %7 = load ptr, ptr %6, align 8, !tbaa !45
  call void @llvm.lifetime.start.p0(i64 4, ptr nonnull %2) #9
  %8 = ptrtoint ptr %7 to i64
  %9 = trunc i64 %8 to i32
  store i32 %9, ptr %2, align 4, !tbaa !29
  %10 = tail call i32 @lua_gc(ptr noundef %3, i32 noundef 2, i32 noundef 0) #9
  %11 = load ptr, ptr %0, align 8, !tbaa !5
  tail call void @lua_close(ptr noundef %11) #9
  tail call void @zfree(ptr noundef nonnull %0) #9
  %12 = call i32 @je_mallctl(ptr noundef nonnull @.str.36, ptr noundef null, ptr noundef null, ptr noundef nonnull %2, i64 noundef 4) #9
  call void @llvm.lifetime.end.p0(i64 4, ptr nonnull %2) #9
  ret void
}